target datalayout = "e-m:e-p270:32:32-p271:32:32-p272:64:64-i64:64-i128:128-f80:128-n8:16:32:64-S128"
target triple = "x86_64-pc-linux-gnu"

%struct.PSNRDSPContext = type { ptr }
%struct.ThreadData = type { [4 x ptr], [4 x ptr], [4 x i32], [4 x i32], [4 x i32], [4 x i32], ptr, i32, ptr }

; Function Attrs: nounwind uwtable
define internal i32 @compute_images_mse(ptr noundef %0, ptr noundef %1, i32 noundef %2, i32 noundef %3) #0 {
  %5 = alloca ptr, align 8
  %6 = alloca ptr, align 8
  %7 = alloca i32, align 4
  %8 = alloca i32, align 4
  %9 = alloca ptr, align 8
  %10 = alloca ptr, align 8
  %11 = alloca i32, align 4
  %12 = alloca i32, align 4
  %13 = alloca i32, align 4
  %14 = alloca i32, align 4
  %15 = alloca i32, align 4
  %16 = alloca i32, align 4
  %17 = alloca i32, align 4
  %18 = alloca i32, align 4
  %19 = alloca ptr, align 8
  %20 = alloca ptr, align 8
  %21 = alloca i64, align 8
  %22 = alloca i32, align 4
  store ptr %0, ptr %5, align 8, !tbaa !4
  store ptr %1, ptr %6, align 8, !tbaa !89
  store i32 %2, ptr %7, align 4, !tbaa !40
  store i32 %3, ptr %8, align 4, !tbaa !40
  call void @llvm.lifetime.start.p0(i64 8, ptr %9) #12
  %23 = load ptr, ptr %6, align 8, !tbaa !89
  store ptr %23, ptr %9, align 8, !tbaa !124
  call void @llvm.lifetime.start.p0(i64 8, ptr %10) #12
  %24 = load ptr, ptr %9, align 8, !tbaa !124
  %25 = getelementptr inbounds nuw %struct.ThreadData, ptr %24, i32 0, i32 6
  %26 = load ptr, ptr %25, align 8, !tbaa !104
  %27 = load i32, ptr %7, align 4, !tbaa !40
  %28 = sext i32 %27 to i64
  %29 = getelementptr inbounds ptr, ptr %26, i64 %28
  %30 = load ptr, ptr %29, align 8, !tbaa !77
  store ptr %30, ptr %10, align 8, !tbaa !77
  call void @llvm.lifetime.start.p0(i64 4, ptr %11) #12
  store i32 0, ptr %11, align 4, !tbaa !40
  br label %31

31:                                               ; preds = %131, %4
  %32 = load i32, ptr %11, align 4, !tbaa !40
  %33 = load ptr, ptr %9, align 8, !tbaa !124
  %34 = getelementptr inbounds nuw %struct.ThreadData, ptr %33, i32 0, i32 7
  %35 = load i32, ptr %34, align 8, !tbaa !100
  %36 = icmp slt i32 %32, %35
  br i1 %36, label %38, label %37

37:                                               ; preds = %31
  store i32 2, ptr %12, align 4
  call void @llvm.lifetime.end.p0(i64 4, ptr %11) #12
  br label %134

38:                                               ; preds = %31
  call void @llvm.lifetime.start.p0(i64 4, ptr %13) #12
  %39 = load ptr, ptr %9, align 8, !tbaa !124
  %40 = getelementptr inbounds nuw %struct.ThreadData, ptr %39, i32 0, i32 4
  %41 = load i32, ptr %11, align 4, !tbaa !40
  %42 = sext i32 %41 to i64
  %43 = getelementptr inbounds [4 x i32], ptr %40, i64 0, i64 %42
  %44 = load i32, ptr %43, align 4, !tbaa !40
  store i32 %44, ptr %13, align 4, !tbaa !40
  call void @llvm.lifetime.start.p0(i64 4, ptr %14) #12
  %45 = load ptr, ptr %9, align 8, !tbaa !124
  %46 = getelementptr inbounds nuw %struct.ThreadData, ptr %45, i32 0, i32 5
  %47 = load i32, ptr %11, align 4, !tbaa !40
  %48 = sext i32 %47 to i64
  %49 = getelementptr inbounds [4 x i32], ptr %46, i64 0, i64 %48
  %50 = load i32, ptr %49, align 4, !tbaa !40
  store i32 %50, ptr %14, align 4, !tbaa !40
  call void @llvm.lifetime.start.p0(i64 4, ptr %15) #12
  %51 = load i32, ptr %14, align 4, !tbaa !40
  %52 = load i32, ptr %7, align 4, !tbaa !40
  %53 = mul nsw i32 %51, %52
  %54 = load i32, ptr %8, align 4, !tbaa !40
  %55 = sdiv i32 %53, %54
  store i32 %55, ptr %15, align 4, !tbaa !40
  call void @llvm.lifetime.start.p0(i64 4, ptr %16) #12
  %56 = load i32, ptr %14, align 4, !tbaa !40
  %57 = load i32, ptr %7, align 4, !tbaa !40
  %58 = add nsw i32 %57, 1
  %59 = mul nsw i32 %56, %58
  %60 = load i32, ptr %8, align 4, !tbaa !40
  %61 = sdiv i32 %59, %60
  store i32 %61, ptr %16, align 4, !tbaa !40
  call void @llvm.lifetime.start.p0(i64 4, ptr %17) #12
  %62 = load ptr, ptr %9, align 8, !tbaa !124
  %63 = getelementptr inbounds nuw %struct.ThreadData, ptr %62, i32 0, i32 3
  %64 = load i32, ptr %11, align 4, !tbaa !40
  %65 = sext i32 %64 to i64
  %66 = getelementptr inbounds [4 x i32], ptr %63, i64 0, i64 %65
  %67 = load i32, ptr %66, align 4, !tbaa !40
  store i32 %67, ptr %17, align 4, !tbaa !40
  call void @llvm.lifetime.start.p0(i64 4, ptr %18) #12
  %68 = load ptr, ptr %9, align 8, !tbaa !124
  %69 = getelementptr inbounds nuw %struct.ThreadData, ptr %68, i32 0, i32 2
  %70 = load i32, ptr %11, align 4, !tbaa !40
  %71 = sext i32 %70 to i64
  %72 = getelementptr inbounds [4 x i32], ptr %69, i64 0, i64 %71
  %73 = load i32, ptr %72, align 4, !tbaa !40
  store i32 %73, ptr %18, align 4, !tbaa !40
  call void @llvm.lifetime.start.p0(i64 8, ptr %19) #12
  %74 = load ptr, ptr %9, align 8, !tbaa !124
  %75 = getelementptr inbounds nuw %struct.ThreadData, ptr %74, i32 0, i32 0
  %76 = load i32, ptr %11, align 4, !tbaa !40
  %77 = sext i32 %76 to i64
  %78 = getelementptr inbounds [4 x ptr], ptr %75, i64 0, i64 %77
  %79 = load ptr, ptr %78, align 8, !tbaa !90
  %80 = load i32, ptr %18, align 4, !tbaa !40
  %81 = load i32, ptr %15, align 4, !tbaa !40
  %82 = mul nsw i32 %80, %81
  %83 = sext i32 %82 to i64
  %84 = getelementptr inbounds i8, ptr %79, i64 %83
  store ptr %84, ptr %19, align 8, !tbaa !90
  call void @llvm.lifetime.start.p0(i64 8, ptr %20) #12
  %85 = load ptr, ptr %9, align 8, !tbaa !124
  %86 = getelementptr inbounds nuw %struct.ThreadData, ptr %85, i32 0, i32 1
  %87 = load i32, ptr %11, align 4, !tbaa !40
  %88 = sext i32 %87 to i64
  %89 = getelementptr inbounds [4 x ptr], ptr %86, i64 0, i64 %88
  %90 = load ptr, ptr %89, align 8, !tbaa !90
  %91 = load i32, ptr %17, align 4, !tbaa !40
  %92 = load i32, ptr %15, align 4, !tbaa !40
  %93 = mul nsw i32 %91, %92
  %94 = sext i32 %93 to i64
  %95 = getelementptr inbounds i8, ptr %90, i64 %94
  store ptr %95, ptr %20, align 8, !tbaa !90
  call void @llvm.lifetime.start.p0(i64 8, ptr %21) #12
  store i64 0, ptr %21, align 8, !tbaa !88
  call void @llvm.lifetime.start.p0(i64 4, ptr %22) #12
  %96 = load i32, ptr %15, align 4, !tbaa !40
  store i32 %96, ptr %22, align 4, !tbaa !40
  br label %97

97:                                               ; preds = %122, %38
  %98 = load i32, ptr %22, align 4, !tbaa !40
  %99 = load i32, ptr %16, align 4, !tbaa !40
  %100 = icmp slt i32 %98, %99
  br i1 %100, label %102, label %101

101:                                              ; preds = %97
  store i32 5, ptr %12, align 4
  call void @llvm.lifetime.end.p0(i64 4, ptr %22) #12
  br label %125

102:                                              ; preds = %97
  %103 = load ptr, ptr %9, align 8, !tbaa !124
  %104 = getelementptr inbounds nuw %struct.ThreadData, ptr %103, i32 0, i32 8
  %105 = load ptr, ptr %104, align 8, !tbaa !103
  %106 = getelementptr inbounds nuw %struct.PSNRDSPContext, ptr %105, i32 0, i32 0
  %107 = load ptr, ptr %106, align 8, !tbaa !126
  %108 = load ptr, ptr %19, align 8, !tbaa !90
  %109 = load ptr, ptr %20, align 8, !tbaa !90
  %110 = load i32, ptr %13, align 4, !tbaa !40
  %111 = call i64 %107(ptr noundef %108, ptr noundef %109, i32 noundef %110)
  %112 = load i64, ptr %21, align 8, !tbaa !88
  %113 = add i64 %112, %111
  store i64 %113, ptr %21, align 8, !tbaa !88
  %114 = load i32, ptr %17, align 4, !tbaa !40
  %115 = load ptr, ptr %20, align 8, !tbaa !90
  %116 = sext i32 %114 to i64
  %117 = getelementptr inbounds i8, ptr %115, i64 %116
  store ptr %117, ptr %20, align 8, !tbaa !90
  %118 = load i32, ptr %18, align 4, !tbaa !40
  %119 = load ptr, ptr %19, align 8, !tbaa !90
  %120 = sext i32 %118 to i64
  %121 = getelementptr inbounds i8, ptr %119, i64 %120
  store ptr %121, ptr %19, align 8, !tbaa !90
  br label %122

122:                                              ; preds = %102
  %123 = load i32, ptr %22, align 4, !tbaa !40
  %124 = add nsw i32 %123, 1
  store i32 %124, ptr %22, align 4, !tbaa !40
  br label %97, !llvm.loop !127

125:                                              ; preds = %101
  %126 = load i64, ptr %21, align 8, !tbaa !88
  %127 = load ptr, ptr %10, align 8, !tbaa !77
  %128 = load i32, ptr %11, align 4, !tbaa !40
  %129 = sext i32 %128 to i64
  %130 = getelementptr inbounds i64, ptr %127, i64 %129
  store i64 %126, ptr %130, align 8, !tbaa !88
  call void @llvm.lifetime.end.p0(i64 8, ptr %21) #12
  call void @llvm.lifetime.end.p0(i64 8, ptr %20) #12
  call void @llvm.lifetime.end.p0(i64 8, ptr %19) #12
  call void @llvm.lifetime.end.p0(i64 4, ptr %18) #12
  call void @llvm.lifetime.end.p0(i64 4, ptr %17) #12
  call void @llvm.lifetime.end.p0(i64 4, ptr %16) #12
  call void @llvm.lifetime.end.p0(i64 4, ptr %15) #12
  call void @llvm.lifetime.end.p0(i64 4, ptr %14) #12
  call void @llvm.lifetime.end.p0(i64 4, ptr %13) #12
  br label %131

131:                                              ; preds = %125
  %132 = load i32, ptr %11, align 4, !tbaa !40
  %133 = add nsw i32 %132, 1
  store i32 %133, ptr %11, align 4, !tbaa !40
  br label %31, !llvm.loop !128

134:                                              ; preds = %37
  store i32 1, ptr %12, align 4
  call void @llvm.lifetime.end.p0(i64 8, ptr %10) #12
  call void @llvm.lifetime.end.p0(i64 8, ptr %9) #12
  ret i32 0
}