; Function Attrs: nounwind uwtable
define internal noundef i32 @compute_images_mse(ptr readnone captures(none) %0, ptr noundef readonly captures(none) %1, i32 noundef %2, i32 noundef %3) #0 {
  %5 = getelementptr inbounds nuw i8, ptr %1, i64 128
  %6 = load ptr, ptr %5, align 8, !tbaa !86
  %7 = sext i32 %2 to i64
  %8 = getelementptr inbounds ptr, ptr %6, i64 %7
  %9 = load ptr, ptr %8, align 8, !tbaa !73
  %10 = getelementptr inbounds nuw i8, ptr %1, i64 136
  %11 = load i32, ptr %10, align 8, !tbaa !82
  %12 = icmp sgt i32 %11, 0
  br i1 %12, label %.lr.ph53, label %._crit_edge54

.lr.ph53:                                         ; preds = %4
  %13 = getelementptr inbounds nuw i8, ptr %1, i64 96
  %14 = getelementptr inbounds nuw i8, ptr %1, i64 112
  %15 = add nsw i32 %2, 1
  %16 = getelementptr inbounds nuw i8, ptr %1, i64 80
  %17 = getelementptr inbounds nuw i8, ptr %1, i64 64
  %18 = getelementptr inbounds nuw i8, ptr %1, i64 32
  %19 = getelementptr inbounds nuw i8, ptr %1, i64 144
  br label %20

._crit_edge54:                                    ; preds = %._crit_edge, %4
  ret i32 0

20:                                               ; preds = %.lr.ph53, %._crit_edge
  %21 = phi i32 [ %11, %.lr.ph53 ], [ %47, %._crit_edge ]
  %indvars.iv = phi i64 [ 0, %.lr.ph53 ], [ %indvars.iv.next, %._crit_edge ]
  %22 = getelementptr inbounds nuw [4 x i32], ptr %13, i64 0, i64 %indvars.iv
  %23 = load i32, ptr %22, align 4, !tbaa !37
  %24 = getelementptr inbounds nuw [4 x i32], ptr %14, i64 0, i64 %indvars.iv
  %25 = load i32, ptr %24, align 4, !tbaa !37
  %26 = mul nsw i32 %25, %2
  %27 = sdiv i32 %26, %3
  %28 = mul nsw i32 %25, %15
  %29 = sdiv i32 %28, %3
  %30 = icmp slt i32 %27, %29
  br i1 %30, label %.lr.ph, label %._crit_edge

.lr.ph:                                           ; preds = %20
  %31 = getelementptr inbounds nuw [4 x ptr], ptr %18, i64 0, i64 %indvars.iv
  %32 = load ptr, ptr %31, align 8, !tbaa !92
  %33 = getelementptr inbounds nuw [4 x i32], ptr %16, i64 0, i64 %indvars.iv
  %34 = load i32, ptr %33, align 4, !tbaa !37
  %35 = mul nsw i32 %34, %27
  %36 = sext i32 %35 to i64
  %37 = getelementptr inbounds i8, ptr %32, i64 %36
  %38 = getelementptr inbounds nuw [4 x ptr], ptr %1, i64 0, i64 %indvars.iv
  %39 = load ptr, ptr %38, align 8, !tbaa !92
  %40 = getelementptr inbounds nuw [4 x i32], ptr %17, i64 0, i64 %indvars.iv
  %41 = load i32, ptr %40, align 4, !tbaa !37
  %42 = mul nsw i32 %41, %27
  %43 = sext i32 %42 to i64
  %44 = getelementptr inbounds i8, ptr %39, i64 %43
  %45 = sext i32 %34 to i64
  %46 = sext i32 %41 to i64
  br label %51

._crit_edge.loopexit:                             ; preds = %51
  %.pre = load i32, ptr %10, align 8, !tbaa !82
  br label %._crit_edge

._crit_edge:                                      ; preds = %._crit_edge.loopexit, %20
  %47 = phi i32 [ %21, %20 ], [ %.pre, %._crit_edge.loopexit ]
  %.043.lcssa = phi i64 [ 0, %20 ], [ %55, %._crit_edge.loopexit ]
  %48 = getelementptr inbounds nuw i64, ptr %9, i64 %indvars.iv
  store i64 %.043.lcssa, ptr %48, align 8, !tbaa !94
  %indvars.iv.next = add nuw nsw i64 %indvars.iv, 1
  %49 = sext i32 %47 to i64
  %50 = icmp slt i64 %indvars.iv.next, %49
  br i1 %50, label %20, label %._crit_edge54, !llvm.loop !109

51:                                               ; preds = %.lr.ph, %51
  %.050 = phi i32 [ %27, %.lr.ph ], [ %58, %51 ]
  %.04349 = phi i64 [ 0, %.lr.ph ], [ %55, %51 ]
  %.04448 = phi ptr [ %37, %.lr.ph ], [ %56, %51 ]
  %.04547 = phi ptr [ %44, %.lr.ph ], [ %57, %51 ]
  %52 = load ptr, ptr %19, align 8, !tbaa !85
  %53 = load ptr, ptr %52, align 8, !tbaa !110
  %54 = tail call i64 %53(ptr noundef %.04547, ptr noundef %.04448, i32 noundef %23) #12
  %55 = add i64 %54, %.04349
  %56 = getelementptr inbounds i8, ptr %.04448, i64 %45
  %57 = getelementptr inbounds i8, ptr %.04547, i64 %46
  %58 = add i32 %.050, 1
  %exitcond.not = icmp eq i32 %58, %29
  br i1 %exitcond.not, label %._crit_edge.loopexit, label %51, !llvm.loop !111
}